(dp0
Vengine
p1
Vxelatex
p2
sVpackages
p3
c__builtin__
set
p4
((lp5
Vhyperref
p6
aVbooktabs
p7
aVbabel
p8
aVfullpage
p9
aVmicrotype
p10
aVinputenc
p11
aVsetspace
p12
aVcfr-lm
p13
atp14
Rp15
sVfiles_with_guttermarks
p16
g4
((lp17
S'untitled.tex'
p18
aV/Users/bsimonbo/Dropbox/_Master 1 SPE/Re\u0300glement des e\u0301tudes/./untitled.tex
p19
atp20
Rp21
sVsynctex
p22
I01
s.