(dp0
Vengine
p1
S'pdflatex'
p2
sVpackages
p3
c__builtin__
set
p4
((lp5
Vhyperref
p6
aVbooktabs
p7
aVgeometry
p8
aVbabel
p9
aVsetspace
p10
aVmicrotype
p11
aVinputenc
p12
aVcfr-lm
p13
atp14
Rp15
sVfiles_with_guttermarks
p16
g4
((lp17
S'untitled.tex'
p18
aV/usr/local/texlive/2015/texmf-dist/tex/latex/hyperref/hyperref.sty
p19
aV/Users/bsimonbo/Dropbox/_Master 1 SPE/Re\u0300glement des e\u0301tudes/./untitled.tex
p20
atp21
Rp22
sVsynctex
p23
I01
s.